; Function Attrs: mustprogress nofree norecurse nosync nounwind willreturn memory(argmem: write) uwtable
define hidden void @_ZN6hermes9IRBuilder17setInsertionBlockEPNS_10BasicBlockE(ptr noundef nonnull writeonly align 8 captures(none) dereferenceable(40) initializes((8, 24)) %this, ptr noundef %BB) local_unnamed_addr #7 align 2 {
entry:
  %tobool.not = icmp eq ptr %BB, null
  %InstList.i = getelementptr inbounds nuw i8, ptr %BB, i64 56
  %spec.select = select i1 %tobool.not, ptr null, ptr %InstList.i
  %0 = getelementptr inbounds nuw i8, ptr %this, i64 8
  store ptr %spec.select, ptr %0, align 8
  %1 = getelementptr inbounds nuw i8, ptr %this, i64 16
  store ptr %BB, ptr %1, align 8
  ret void
}